target datalayout = "e-m:e-p270:32:32-p271:32:32-p272:64:64-i64:64-i128:128-f80:128-n8:16:32:64-S128"
target triple = "x86_64-pc-linux-gnu"

%struct.StringInfoData = type { ptr, i32, i32, i32 }
%struct.deparse_context = type { ptr, ptr, ptr, ptr, ptr, i32, i32, i32, i8, i8, i8, i8, ptr }
%union.ListCell = type { ptr }
%struct.nameData = type { [64 x i8] }
%struct.RelationData = type { %struct.RelFileLocator, ptr, i32, i32, i8, i8, i8, i8, i8, i32, i32, i32, i32, ptr, ptr, i32, %struct.LockInfoData, ptr, ptr, ptr, ptr, ptr, i8, ptr, ptr, ptr, ptr, ptr, ptr, i32, ptr, i8, ptr, ptr, i32, i8, i32, ptr, i8, ptr, ptr, ptr, ptr, ptr, ptr, ptr, i32, ptr, ptr, ptr, ptr, ptr, ptr, ptr, ptr, ptr, ptr, ptr, ptr, ptr, ptr, ptr, ptr, ptr, ptr, ptr, i32, i8, ptr }
%struct.RelFileLocator = type { i32, i32, i32 }
%struct.LockInfoData = type { %struct.LockRelId }
%struct.LockRelId = type { i32, i32 }
%struct.FormData_pg_class = type { i32, %struct.nameData, i32, i32, i32, i32, i32, i32, i32, i32, float, i32, i32, i8, i8, i8, i8, i16, i16, i8, i8, i8, i8, i8, i8, i8, i8, i32, i32, i32 }
%struct.List = type { i32, i32, i32, ptr, [0 x %union.ListCell] }
%struct.Node = type { i32 }

@.str.2 = private unnamed_addr constant [12 x i8] c"ruleutils.c\00", align 1
@.str.422 = private unnamed_addr constant [36 x i8] c"input is a query, not an expression\00", align 1
@__func__.pg_get_expr_worker = private unnamed_addr constant [19 x i8] c"pg_get_expr_worker\00", align 1
@.str.423 = private unnamed_addr constant [56 x i8] c"expression contains variables of more than one relation\00", align 1
@.str.424 = private unnamed_addr constant [30 x i8] c"expression contains variables\00", align 1

; Function Attrs: nounwind uwtable
define internal ptr @string_to_text(ptr noundef %0) #0 {
  %2 = alloca ptr, align 8
  %3 = alloca ptr, align 8
  store ptr %0, ptr %2, align 8
  call void @llvm.lifetime.start.p0(i64 8, ptr %3) #10
  %4 = load ptr, ptr %2, align 8
  %5 = call ptr @cstring_to_text(ptr noundef %4)
  store ptr %5, ptr %3, align 8
  %6 = load ptr, ptr %2, align 8
  call void @pfree(ptr noundef %6)
  %7 = load ptr, ptr %3, align 8
  call void @llvm.lifetime.end.p0(i64 8, ptr %3) #10
  ret ptr %7
}

; Function Attrs: nounwind uwtable
define internal ptr @deparse_expression_pretty(ptr noundef %0, ptr noundef %1, i1 noundef zeroext %2, i1 noundef zeroext %3, i32 noundef %4, i32 noundef %5) #0 {
  %7 = alloca ptr, align 8
  %8 = alloca ptr, align 8
  %9 = alloca i8, align 1
  %10 = alloca i8, align 1
  %11 = alloca i32, align 4
  %12 = alloca i32, align 4
  %13 = alloca %struct.StringInfoData, align 8
  %14 = alloca %struct.deparse_context, align 8
  store ptr %0, ptr %7, align 8
  store ptr %1, ptr %8, align 8
  %15 = zext i1 %2 to i8
  store i8 %15, ptr %9, align 1
  %16 = zext i1 %3 to i8
  store i8 %16, ptr %10, align 1
  store i32 %4, ptr %11, align 4
  store i32 %5, ptr %12, align 4
  call void @llvm.lifetime.start.p0(i64 24, ptr %13) #10
  call void @llvm.lifetime.start.p0(i64 64, ptr %14) #10
  call void @initStringInfo(ptr noundef %13)
  %17 = getelementptr inbounds nuw %struct.deparse_context, ptr %14, i32 0, i32 0
  store ptr %13, ptr %17, align 8
  %18 = load ptr, ptr %8, align 8
  %19 = getelementptr inbounds nuw %struct.deparse_context, ptr %14, i32 0, i32 1
  store ptr %18, ptr %19, align 8
  %20 = getelementptr inbounds nuw %struct.deparse_context, ptr %14, i32 0, i32 2
  store ptr null, ptr %20, align 8
  %21 = getelementptr inbounds nuw %struct.deparse_context, ptr %14, i32 0, i32 3
  store ptr null, ptr %21, align 8
  %22 = getelementptr inbounds nuw %struct.deparse_context, ptr %14, i32 0, i32 4
  store ptr null, ptr %22, align 8
  %23 = load i8, ptr %9, align 1, !range !4, !noundef !5
  %24 = trunc i8 %23 to i1
  %25 = getelementptr inbounds nuw %struct.deparse_context, ptr %14, i32 0, i32 8
  %26 = zext i1 %24 to i8
  store i8 %26, ptr %25, align 4
  %27 = load i32, ptr %11, align 4
  %28 = getelementptr inbounds nuw %struct.deparse_context, ptr %14, i32 0, i32 5
  store i32 %27, ptr %28, align 8
  %29 = getelementptr inbounds nuw %struct.deparse_context, ptr %14, i32 0, i32 6
  store i32 0, ptr %29, align 4
  %30 = load i32, ptr %12, align 4
  %31 = getelementptr inbounds nuw %struct.deparse_context, ptr %14, i32 0, i32 7
  store i32 %30, ptr %31, align 8
  %32 = getelementptr inbounds nuw %struct.deparse_context, ptr %14, i32 0, i32 9
  store i8 1, ptr %32, align 1
  %33 = getelementptr inbounds nuw %struct.deparse_context, ptr %14, i32 0, i32 10
  store i8 0, ptr %33, align 2
  %34 = getelementptr inbounds nuw %struct.deparse_context, ptr %14, i32 0, i32 11
  store i8 0, ptr %34, align 1
  %35 = getelementptr inbounds nuw %struct.deparse_context, ptr %14, i32 0, i32 12
  store ptr null, ptr %35, align 8
  %36 = load ptr, ptr %7, align 8
  %37 = load i8, ptr %10, align 1, !range !4, !noundef !5
  %38 = trunc i8 %37 to i1
  call void @get_rule_expr(ptr noundef %36, ptr noundef %14, i1 noundef zeroext %38)
  %39 = getelementptr inbounds nuw %struct.StringInfoData, ptr %13, i32 0, i32 0
  %40 = load ptr, ptr %39, align 8
  call void @llvm.lifetime.end.p0(i64 64, ptr %14) #10
  call void @llvm.lifetime.end.p0(i64 24, ptr %13) #10
  ret ptr %40
}

; Function Attrs: inlinehint nounwind uwtable
define internal ptr @list_nth_cell(ptr noundef %0, i32 noundef %1) #2 {
  %3 = alloca ptr, align 8
  %4 = alloca i32, align 4
  store ptr %0, ptr %3, align 8
  store i32 %1, ptr %4, align 4
  %5 = load ptr, ptr %3, align 8
  %6 = getelementptr inbounds nuw %struct.List, ptr %5, i32 0, i32 3
  %7 = load ptr, ptr %6, align 8
  %8 = load i32, ptr %4, align 4
  %9 = sext i32 %8 to i64
  %10 = getelementptr inbounds %union.ListCell, ptr %7, i64 %9
  ret ptr %10
}

; Function Attrs: nounwind uwtable
define internal ptr @pg_get_expr_worker(ptr noundef %0, i32 noundef %1, i32 noundef %2) #0 {
  %4 = alloca ptr, align 8
  %5 = alloca ptr, align 8
  %6 = alloca i32, align 4
  %7 = alloca i32, align 4
  %8 = alloca ptr, align 8
  %9 = alloca ptr, align 8
  %10 = alloca ptr, align 8
  %11 = alloca ptr, align 8
  %12 = alloca ptr, align 8
  %13 = alloca ptr, align 8
  %14 = alloca ptr, align 8
  %15 = alloca i32, align 4
  store ptr %0, ptr %5, align 8
  store i32 %1, ptr %6, align 4
  store i32 %2, ptr %7, align 4
  call void @llvm.lifetime.start.p0(i64 8, ptr %8) #10
  call void @llvm.lifetime.start.p0(i64 8, ptr %9) #10
  call void @llvm.lifetime.start.p0(i64 8, ptr %10) #10
  call void @llvm.lifetime.start.p0(i64 8, ptr %11) #10
  call void @llvm.lifetime.start.p0(i64 8, ptr %12) #10
  call void @llvm.lifetime.start.p0(i64 8, ptr %13) #10
  store ptr null, ptr %13, align 8
  call void @llvm.lifetime.start.p0(i64 8, ptr %14) #10
  %16 = load ptr, ptr %5, align 8
  %17 = call ptr @text_to_cstring(ptr noundef %16)
  store ptr %17, ptr %12, align 8
  %18 = load ptr, ptr %12, align 8
  %19 = call ptr @stringToNode(ptr noundef %18)
  store ptr %19, ptr %8, align 8
  %20 = load ptr, ptr %12, align 8
  call void @pfree(ptr noundef %20)
  %21 = load ptr, ptr %8, align 8
  store ptr %21, ptr %9, align 8
  br label %22

22:                                               ; preds = %32, %3
  %23 = load ptr, ptr %9, align 8
  %24 = icmp ne ptr %23, null
  br i1 %24, label %25, label %30

25:                                               ; preds = %22
  %26 = load ptr, ptr %9, align 8
  %27 = getelementptr inbounds nuw %struct.Node, ptr %26, i32 0, i32 0
  %28 = load i32, ptr %27, align 4
  %29 = icmp eq i32 %28, 1
  br label %30

30:                                               ; preds = %25, %22
  %31 = phi i1 [ false, %22 ], [ %29, %25 ]
  br i1 %31, label %32, label %36

32:                                               ; preds = %30
  %33 = load ptr, ptr %9, align 8
  %34 = call ptr @list_nth_cell(ptr noundef %33, i32 noundef 0)
  %35 = load ptr, ptr %34, align 8
  store ptr %35, ptr %9, align 8
  br label %22, !llvm.loop !18

36:                                               ; preds = %30
  %37 = load ptr, ptr %9, align 8
  %38 = icmp ne ptr %37, null
  br i1 %38, label %39, label %56

39:                                               ; preds = %36
  %40 = load ptr, ptr %9, align 8
  %41 = getelementptr inbounds nuw %struct.Node, ptr %40, i32 0, i32 0
  %42 = load i32, ptr %41, align 4
  %43 = icmp eq i32 %42, 67
  br i1 %43, label %44, label %56

44:                                               ; preds = %39
  br label %45

45:                                               ; preds = %44
  br i1 true, label %46, label %48

46:                                               ; preds = %45
  %47 = call zeroext i1 @errstart_cold(i32 noundef 21, ptr noundef null) #11
  br i1 %47, label %50, label %53

48:                                               ; preds = %45
  %49 = call zeroext i1 @errstart(i32 noundef 21, ptr noundef null)
  br i1 %49, label %50, label %53

50:                                               ; preds = %48, %46
  %51 = call i32 @errcode(i32 noundef 50856066)
  %52 = call i32 (ptr, ...) @errmsg(ptr noundef @.str.422)
  call void @errfinish(ptr noundef @.str.2, i32 noundef 2737, ptr noundef @__func__.pg_get_expr_worker)
  br label %53

53:                                               ; preds = %50, %48, %46
  unreachable

54:                                               ; No predecessors!
  br label %55

55:                                               ; preds = %54
  br label %56

56:                                               ; preds = %55, %39, %36
  %57 = load ptr, ptr %8, align 8
  %58 = call ptr @pull_varnos(ptr noundef null, ptr noundef %57)
  store ptr %58, ptr %10, align 8
  %59 = load i32, ptr %6, align 4
  %60 = icmp ne i32 %59, 0
  br i1 %60, label %61, label %78

61:                                               ; preds = %56
  %62 = load ptr, ptr %10, align 8
  %63 = call ptr @bms_make_singleton(i32 noundef 1)
  %64 = call zeroext i1 @bms_is_subset(ptr noundef %62, ptr noundef %63)
  br i1 %64, label %77, label %65

65:                                               ; preds = %61
  br label %66

66:                                               ; preds = %65
  br i1 true, label %67, label %69

67:                                               ; preds = %66
  %68 = call zeroext i1 @errstart_cold(i32 noundef 21, ptr noundef null) #11
  br i1 %68, label %71, label %74

69:                                               ; preds = %66
  %70 = call zeroext i1 @errstart(i32 noundef 21, ptr noundef null)
  br i1 %70, label %71, label %74

71:                                               ; preds = %69, %67
  %72 = call i32 @errcode(i32 noundef 50856066)
  %73 = call i32 (ptr, ...) @errmsg(ptr noundef @.str.423)
  call void @errfinish(ptr noundef @.str.2, i32 noundef 2749, ptr noundef @__func__.pg_get_expr_worker)
  br label %74

74:                                               ; preds = %71, %69, %67
  unreachable

75:                                               ; No predecessors!
  br label %76

76:                                               ; preds = %75
  br label %77

77:                                               ; preds = %76, %61
  br label %94

78:                                               ; preds = %56
  %79 = load ptr, ptr %10, align 8
  %80 = icmp eq ptr %79, null
  br i1 %80, label %93, label %81

81:                                               ; preds = %78
  br label %82

82:                                               ; preds = %81
  br i1 true, label %83, label %85

83:                                               ; preds = %82
  %84 = call zeroext i1 @errstart_cold(i32 noundef 21, ptr noundef null) #11
  br i1 %84, label %87, label %90

85:                                               ; preds = %82
  %86 = call zeroext i1 @errstart(i32 noundef 21, ptr noundef null)
  br i1 %86, label %87, label %90

87:                                               ; preds = %85, %83
  %88 = call i32 @errcode(i32 noundef 50856066)
  %89 = call i32 (ptr, ...) @errmsg(ptr noundef @.str.424)
  call void @errfinish(ptr noundef @.str.2, i32 noundef 2756, ptr noundef @__func__.pg_get_expr_worker)
  br label %90

90:                                               ; preds = %87, %85, %83
  unreachable

91:                                               ; No predecessors!
  br label %92

92:                                               ; preds = %91
  br label %93

93:                                               ; preds = %92, %78
  br label %94

94:                                               ; preds = %93, %77
  %95 = load i32, ptr %6, align 4
  %96 = icmp ne i32 %95, 0
  br i1 %96, label %97, label %112

97:                                               ; preds = %94
  %98 = load i32, ptr %6, align 4
  %99 = call ptr @try_relation_open(i32 noundef %98, i32 noundef 1)
  store ptr %99, ptr %13, align 8
  %100 = load ptr, ptr %13, align 8
  %101 = icmp eq ptr %100, null
  br i1 %101, label %102, label %103

102:                                              ; preds = %97
  store ptr null, ptr %4, align 8
  store i32 1, ptr %15, align 4
  br label %125

103:                                              ; preds = %97
  %104 = load ptr, ptr %13, align 8
  %105 = getelementptr inbounds nuw %struct.RelationData, ptr %104, i32 0, i32 13
  %106 = load ptr, ptr %105, align 8
  %107 = getelementptr inbounds nuw %struct.FormData_pg_class, ptr %106, i32 0, i32 1
  %108 = getelementptr inbounds nuw %struct.nameData, ptr %107, i32 0, i32 0
  %109 = getelementptr inbounds [64 x i8], ptr %108, i64 0, i64 0
  %110 = load i32, ptr %6, align 4
  %111 = call ptr @deparse_context_for(ptr noundef %109, i32 noundef %110)
  store ptr %111, ptr %11, align 8
  br label %113

112:                                              ; preds = %94
  store ptr null, ptr %11, align 8
  br label %113

113:                                              ; preds = %112, %103
  %114 = load ptr, ptr %8, align 8
  %115 = load ptr, ptr %11, align 8
  %116 = load i32, ptr %7, align 4
  %117 = call ptr @deparse_expression_pretty(ptr noundef %114, ptr noundef %115, i1 noundef zeroext false, i1 noundef zeroext false, i32 noundef %116, i32 noundef 0)
  store ptr %117, ptr %14, align 8
  %118 = load ptr, ptr %13, align 8
  %119 = icmp ne ptr %118, null
  br i1 %119, label %120, label %122

120:                                              ; preds = %113
  %121 = load ptr, ptr %13, align 8
  call void @relation_close(ptr noundef %121, i32 noundef 1)
  br label %122

122:                                              ; preds = %120, %113
  %123 = load ptr, ptr %14, align 8
  %124 = call ptr @string_to_text(ptr noundef %123)
  store ptr %124, ptr %4, align 8
  store i32 1, ptr %15, align 4
  br label %125

125:                                              ; preds = %122, %102
  call void @llvm.lifetime.end.p0(i64 8, ptr %14) #10
  call void @llvm.lifetime.end.p0(i64 8, ptr %13) #10
  call void @llvm.lifetime.end.p0(i64 8, ptr %12) #10
  call void @llvm.lifetime.end.p0(i64 8, ptr %11) #10
  call void @llvm.lifetime.end.p0(i64 8, ptr %10) #10
  call void @llvm.lifetime.end.p0(i64 8, ptr %9) #10
  call void @llvm.lifetime.end.p0(i64 8, ptr %8) #10
  %126 = load ptr, ptr %4, align 8
  ret ptr %126
}