; Function Attrs: nounwind uwtable
define internal fastcc ptr @pg_get_expr_worker(ptr noundef %0, i32 noundef %1, i32 noundef range(i32 2, 8) %2) unnamed_addr #0 {
  %4 = alloca %struct.StringInfoData, align 8
  %5 = alloca %struct.deparse_context, align 8
  %6 = tail call ptr @text_to_cstring(ptr noundef %0) #11
  %7 = tail call ptr @stringToNode(ptr noundef %6) #11
  tail call void @pfree(ptr noundef %6) #11
  %.not32 = icmp eq ptr %7, null
  br i1 %.not32, label %.critedge31, label %.lr.ph

.lr.ph:                                           ; preds = %3, %9
  %.02533 = phi ptr [ %11, %9 ], [ %7, %3 ]
  %8 = load i32, ptr %.02533, align 4
  switch i32 %8, label %.critedge31 [
    i32 1, label %9
    i32 67, label %12
  ]

9:                                                ; preds = %.lr.ph
  %10 = getelementptr i8, ptr %.02533, i64 16
  %.025.val = load ptr, ptr %10, align 8
  %11 = load ptr, ptr %.025.val, align 8
  %.not = icmp eq ptr %11, null
  br i1 %.not, label %.critedge31, label %.lr.ph, !llvm.loop !26

12:                                               ; preds = %.lr.ph
  %13 = tail call zeroext i1 @errstart_cold(i32 noundef 21, ptr noundef null) #12
  tail call void @llvm.assume(i1 %13)
  %14 = tail call i32 @errcode(i32 noundef 50856066) #11
  %15 = tail call i32 (ptr, ...) @errmsg(ptr noundef nonnull @.str.422) #11
  tail call void @errfinish(ptr noundef nonnull @.str.2, i32 noundef 2737, ptr noundef nonnull @__func__.pg_get_expr_worker) #11
  unreachable

.critedge31:                                      ; preds = %9, %.lr.ph, %3
  %16 = tail call ptr @pull_varnos(ptr noundef null, ptr noundef %7) #11
  %.not29 = icmp eq i32 %1, 0
  br i1 %.not29, label %24, label %17

17:                                               ; preds = %.critedge31
  %18 = tail call ptr @bms_make_singleton(i32 noundef 1) #11
  %19 = tail call zeroext i1 @bms_is_subset(ptr noundef %16, ptr noundef %18) #11
  br i1 %19, label %30, label %20

20:                                               ; preds = %17
  %21 = tail call zeroext i1 @errstart_cold(i32 noundef 21, ptr noundef null) #12
  tail call void @llvm.assume(i1 %21)
  %22 = tail call i32 @errcode(i32 noundef 50856066) #11
  %23 = tail call i32 (ptr, ...) @errmsg(ptr noundef nonnull @.str.423) #11
  tail call void @errfinish(ptr noundef nonnull @.str.2, i32 noundef 2749, ptr noundef nonnull @__func__.pg_get_expr_worker) #11
  unreachable

24:                                               ; preds = %.critedge31
  %25 = icmp eq ptr %16, null
  br i1 %25, label %.thread, label %26

26:                                               ; preds = %24
  %27 = tail call zeroext i1 @errstart_cold(i32 noundef 21, ptr noundef null) #12
  tail call void @llvm.assume(i1 %27)
  %28 = tail call i32 @errcode(i32 noundef 50856066) #11
  %29 = tail call i32 (ptr, ...) @errmsg(ptr noundef nonnull @.str.424) #11
  tail call void @errfinish(ptr noundef nonnull @.str.2, i32 noundef 2756, ptr noundef nonnull @__func__.pg_get_expr_worker) #11
  unreachable

30:                                               ; preds = %17
  %31 = tail call ptr @try_relation_open(i32 noundef %1, i32 noundef 1) #11
  %32 = icmp eq ptr %31, null
  br i1 %32, label %52, label %33

33:                                               ; preds = %30
  %34 = getelementptr inbounds nuw i8, ptr %31, i64 56
  %35 = load ptr, ptr %34, align 8
  %36 = getelementptr inbounds nuw i8, ptr %35, i64 4
  %37 = tail call ptr @deparse_context_for(ptr noundef nonnull %36, i32 noundef %1)
  br label %.thread

.thread:                                          ; preds = %24, %33
  %.026 = phi ptr [ %37, %33 ], [ null, %24 ]
  %.024 = phi ptr [ %31, %33 ], [ null, %24 ]
  call void @llvm.lifetime.start.p0(i64 24, ptr nonnull %4) #11
  call void @llvm.lifetime.start.p0(i64 64, ptr nonnull %5) #11
  call void @initStringInfo(ptr noundef nonnull %4) #11
  store ptr %4, ptr %5, align 8
  %38 = getelementptr inbounds nuw i8, ptr %5, i64 8
  store ptr %.026, ptr %38, align 8
  %39 = getelementptr inbounds nuw i8, ptr %5, i64 16
  %40 = getelementptr inbounds nuw i8, ptr %5, i64 52
  call void @llvm.memset.p0.i64(ptr noundef nonnull align 8 dereferenceable(24) %39, i8 0, i64 24, i1 false)
  store i8 0, ptr %40, align 4
  %41 = getelementptr inbounds nuw i8, ptr %5, i64 40
  store i32 %2, ptr %41, align 8
  %42 = getelementptr inbounds nuw i8, ptr %5, i64 44
  store i32 0, ptr %42, align 4
  %43 = getelementptr inbounds nuw i8, ptr %5, i64 48
  store i32 0, ptr %43, align 8
  %44 = getelementptr inbounds nuw i8, ptr %5, i64 53
  store i8 1, ptr %44, align 1
  %45 = getelementptr inbounds nuw i8, ptr %5, i64 54
  store i8 0, ptr %45, align 2
  %46 = getelementptr inbounds nuw i8, ptr %5, i64 55
  store i8 0, ptr %46, align 1
  %47 = getelementptr inbounds nuw i8, ptr %5, i64 56
  store ptr null, ptr %47, align 8
  call fastcc void @get_rule_expr(ptr noundef %7, ptr noundef nonnull %5, i1 noundef zeroext false)
  %48 = load ptr, ptr %4, align 8
  call void @llvm.lifetime.end.p0(i64 64, ptr nonnull %5) #11
  call void @llvm.lifetime.end.p0(i64 24, ptr nonnull %4) #11
  %.not30 = icmp eq ptr %.024, null
  br i1 %.not30, label %50, label %49

49:                                               ; preds = %.thread
  call void @relation_close(ptr noundef nonnull %.024, i32 noundef 1) #11
  br label %50

50:                                               ; preds = %49, %.thread
  %51 = call ptr @cstring_to_text(ptr noundef %48) #11
  call void @pfree(ptr noundef %48) #11
  br label %52

52:                                               ; preds = %30, %50
  %.0 = phi ptr [ %51, %50 ], [ null, %30 ]
  ret ptr %.0
}